Certificate:
    Data:
        Version: 3 (0x2)
        Serial Number: 2 (0x2)
    Signature Algorithm: ecdsa-with-SHA256
        Issuer: C=au, ST=NSW, L=Marsfield, O=p.320, OU=DATA61, CN=smit.ca.com/emailAddress=smit@ca.com
        Validity
            Not Before: Jul 16 05:27:30 2018 GMT
            Not After : Jul 16 05:27:30 2019 GMT
        Subject: C=AU, ST=NSW, L=Marsfield, O=DATA61, OU=Client, CN=client.smit.ca.com/emailAddress=client.smit@ca.com
        Subject Public Key Info:
            Public Key Algorithm: id-ecPublicKey
                Public-Key: (256 bit)
                pub: 
                    04:ba:19:b9:da:0b:81:b2:39:fa:7f:1a:5c:82:79:
                    66:2a:83:67:e3:97:66:1c:1a:4d:5a:f6:9a:d3:e2:
                    55:3d:31:34:78:c9:fa:05:19:08:0f:ef:fb:c3:28:
                    91:8e:19:f1:c7:79:d4:22:ed:ee:7e:e3:c3:9a:b3:
                    32:aa:e7:d1:ed
                ASN1 OID: secp256k1
        X509v3 extensions:
            X509v3 Basic Constraints: 
                CA:FALSE
            Authority Information Access: 
                OCSP - URI:http://127.0.0.1:8888

            Netscape Comment: 
                OpenSSL Generated Certificate
            X509v3 Subject Key Identifier: 
                B6:A7:EC:08:73:39:2A:56:51:F2:42:26:FF:06:EF:E6:59:7F:98:1F
            X509v3 Authority Key Identifier: 
                keyid:50:3A:41:56:B9:B5:3A:8E:5E:CD:EC:99:28:A8:F0:2B:56:43:0A:8B

    Signature Algorithm: ecdsa-with-SHA256
         30:45:02:20:5e:d2:21:f5:3d:95:db:4d:00:c3:c9:a5:8f:25:
         49:ce:9d:e0:d1:ec:a7:f5:1c:1d:6d:b0:da:7e:46:91:29:e8:
         02:21:00:f1:4d:ae:60:31:e6:8f:6e:ce:9c:0d:1d:42:9e:72:
         8d:f0:7a:96:db:58:78:fd:2f:31:af:2d:c3:ed:0a:63:88
-----BEGIN CERTIFICATE-----
MIICsTCCAlegAwIBAgIBAjAKBggqhkjOPQQDAjCBgjELMAkGA1UEBhMCYXUxDDAK
BgNVBAgMA05TVzESMBAGA1UEBwwJTWFyc2ZpZWxkMQ4wDAYDVQQKDAVwLjMyMDEP
MA0GA1UECwwGREFUQTYxMRQwEgYDVQQDDAtzbWl0LmNhLmNvbTEaMBgGCSqGSIb3
DQEJARYLc21pdEBjYS5jb20wHhcNMTgwNzE2MDUyNzMwWhcNMTkwNzE2MDUyNzMw
WjCBkTELMAkGA1UEBhMCQVUxDDAKBgNVBAgMA05TVzESMBAGA1UEBwwJTWFyc2Zp
ZWxkMQ8wDQYDVQQKDAZEQVRBNjExDzANBgNVBAsMBkNsaWVudDEbMBkGA1UEAwwS
Y2xpZW50LnNtaXQuY2EuY29tMSEwHwYJKoZIhvcNAQkBFhJjbGllbnQuc21pdEBj
YS5jb20wVjAQBgcqhkjOPQIBBgUrgQQACgNCAAS6GbnaC4GyOfp/GlyCeWYqg2fj
l2YcGk1a9prT4lU9MTR4yfoFGQgP7/vDKJGOGfHHedQi7e5+48OaszKq59Hto4Gv
MIGsMAkGA1UdEwQCMAAwMQYIKwYBBQUHAQEEJTAjMCEGCCsGAQUFBzABhhVodHRw
Oi8vMTI3LjAuMC4xOjg4ODgwLAYJYIZIAYb4QgENBB8WHU9wZW5TU0wgR2VuZXJh
dGVkIENlcnRpZmljYXRlMB0GA1UdDgQWBBS2p+wIczkqVlHyQib/Bu/mWX+YHzAf
BgNVHSMEGDAWgBRQOkFWubU6jl7N7JkoqPArVkMKizAKBggqhkjOPQQDAgNIADBF
AiBe0iH1PZXbTQDDyaWPJUnOneDR7Kf1HB1tsNp+RpEp6AIhAPFNrmAx5o9uzpwN
HUKeco3wepbbWHj9LzGvLcPtCmOI
-----END CERTIFICATE-----
